target datalayout = "e-m:e-p270:32:32-p271:32:32-p272:64:64-i64:64-i128:128-f80:128-n8:16:32:64-S128"
target triple = "x86_64-pc-linux-gnu"

%struct.AggState = type { %struct.ScanState, ptr, i32, i32, i32, i32, ptr, i32, i32, ptr, ptr, ptr, ptr, ptr, ptr, ptr, ptr, i8, i8, i32, i32, ptr, ptr, ptr, i32, i8, i32, ptr, ptr, ptr, ptr, ptr, ptr, i8, i32, ptr, ptr, ptr, ptr, ptr, ptr, i8, i8, i64, i64, i32, double, i64, i64, i64, i32, ptr, ptr, ptr, ptr }
%struct.ScanState = type { %struct.PlanState, ptr, ptr, ptr }
%struct.PlanState = type { i32, ptr, ptr, ptr, ptr, ptr, ptr, ptr, ptr, ptr, ptr, ptr, ptr, ptr, ptr, ptr, ptr, ptr, i8, ptr, ptr, ptr, ptr, ptr, i8, i8, i8, i8, i8, i8, i8, i8 }
%struct.HashAggSpill = type { i32, ptr, ptr, i32, i32, ptr }

; Function Attrs: nounwind uwtable
define internal void @hashagg_reset_spill_state(ptr noundef %0) #0 {
  %2 = alloca ptr, align 8
  %3 = alloca i32, align 4
  %4 = alloca ptr, align 8
  store ptr %0, ptr %2, align 8
  %5 = load ptr, ptr %2, align 8
  %6 = getelementptr inbounds nuw %struct.AggState, ptr %5, i32 0, i32 37
  %7 = load ptr, ptr %6, align 8
  %8 = icmp ne ptr %7, null
  br i1 %8, label %9, label %38

9:                                                ; preds = %1
  call void @llvm.lifetime.start.p0(i64 4, ptr %3) #9
  store i32 0, ptr %3, align 4
  br label %10

10:                                               ; preds = %29, %9
  %11 = load i32, ptr %3, align 4
  %12 = load ptr, ptr %2, align 8
  %13 = getelementptr inbounds nuw %struct.AggState, ptr %12, i32 0, i32 34
  %14 = load i32, ptr %13, align 4
  %15 = icmp slt i32 %11, %14
  br i1 %15, label %16, label %32

16:                                               ; preds = %10
  call void @llvm.lifetime.start.p0(i64 8, ptr %4) #9
  %17 = load ptr, ptr %2, align 8
  %18 = getelementptr inbounds nuw %struct.AggState, ptr %17, i32 0, i32 37
  %19 = load ptr, ptr %18, align 8
  %20 = load i32, ptr %3, align 4
  %21 = sext i32 %20 to i64
  %22 = getelementptr inbounds %struct.HashAggSpill, ptr %19, i64 %21
  store ptr %22, ptr %4, align 8
  %23 = load ptr, ptr %4, align 8
  %24 = getelementptr inbounds nuw %struct.HashAggSpill, ptr %23, i32 0, i32 2
  %25 = load ptr, ptr %24, align 8
  call void @pfree(ptr noundef %25)
  %26 = load ptr, ptr %4, align 8
  %27 = getelementptr inbounds nuw %struct.HashAggSpill, ptr %26, i32 0, i32 1
  %28 = load ptr, ptr %27, align 8
  call void @pfree(ptr noundef %28)
  call void @llvm.lifetime.end.p0(i64 8, ptr %4) #9
  br label %29

29:                                               ; preds = %16
  %30 = load i32, ptr %3, align 4
  %31 = add i32 %30, 1
  store i32 %31, ptr %3, align 4
  br label %10, !llvm.loop !33

32:                                               ; preds = %10
  %33 = load ptr, ptr %2, align 8
  %34 = getelementptr inbounds nuw %struct.AggState, ptr %33, i32 0, i32 37
  %35 = load ptr, ptr %34, align 8
  call void @pfree(ptr noundef %35)
  %36 = load ptr, ptr %2, align 8
  %37 = getelementptr inbounds nuw %struct.AggState, ptr %36, i32 0, i32 37
  store ptr null, ptr %37, align 8
  call void @llvm.lifetime.end.p0(i64 4, ptr %3) #9
  br label %38

38:                                               ; preds = %32, %1
  %39 = load ptr, ptr %2, align 8
  %40 = getelementptr inbounds nuw %struct.AggState, ptr %39, i32 0, i32 40
  %41 = load ptr, ptr %40, align 8
  call void @list_free_deep(ptr noundef %41)
  %42 = load ptr, ptr %2, align 8
  %43 = getelementptr inbounds nuw %struct.AggState, ptr %42, i32 0, i32 40
  store ptr null, ptr %43, align 8
  %44 = load ptr, ptr %2, align 8
  %45 = getelementptr inbounds nuw %struct.AggState, ptr %44, i32 0, i32 36
  %46 = load ptr, ptr %45, align 8
  %47 = icmp ne ptr %46, null
  br i1 %47, label %48, label %54

48:                                               ; preds = %38
  %49 = load ptr, ptr %2, align 8
  %50 = getelementptr inbounds nuw %struct.AggState, ptr %49, i32 0, i32 36
  %51 = load ptr, ptr %50, align 8
  call void @LogicalTapeSetClose(ptr noundef %51)
  %52 = load ptr, ptr %2, align 8
  %53 = getelementptr inbounds nuw %struct.AggState, ptr %52, i32 0, i32 36
  store ptr null, ptr %53, align 8
  br label %54

54:                                               ; preds = %48, %38
  ret void
}