; Function Attrs: nounwind uwtable
define internal fastcc void @hashagg_reset_spill_state(ptr noundef captures(none) %0) unnamed_addr #2 {
  %2 = getelementptr inbounds nuw i8, ptr %0, i64 456
  %3 = load ptr, ptr %2, align 8
  %.not = icmp eq ptr %3, null
  br i1 %.not, label %17, label %.preheader

.preheader:                                       ; preds = %1
  %4 = getelementptr inbounds nuw i8, ptr %0, i64 436
  %5 = load i32, ptr %4, align 4
  %6 = icmp sgt i32 %5, 0
  br i1 %6, label %.lr.ph, label %._crit_edge

.lr.ph:                                           ; preds = %.preheader, %.lr.ph
  %indvars.iv = phi i64 [ %indvars.iv.next, %.lr.ph ], [ 0, %.preheader ]
  %7 = load ptr, ptr %2, align 8
  %8 = getelementptr inbounds nuw %struct.HashAggSpill, ptr %7, i64 %indvars.iv
  %9 = getelementptr inbounds nuw i8, ptr %8, i64 16
  %10 = load ptr, ptr %9, align 8
  tail call void @pfree(ptr noundef %10) #12
  %11 = getelementptr inbounds nuw i8, ptr %8, i64 8
  %12 = load ptr, ptr %11, align 8
  tail call void @pfree(ptr noundef %12) #12
  %indvars.iv.next = add nuw nsw i64 %indvars.iv, 1
  %13 = load i32, ptr %4, align 4
  %14 = sext i32 %13 to i64
  %15 = icmp slt i64 %indvars.iv.next, %14
  br i1 %15, label %.lr.ph, label %._crit_edge.loopexit, !llvm.loop !33

._crit_edge.loopexit:                             ; preds = %.lr.ph
  %.pre = load ptr, ptr %2, align 8
  br label %._crit_edge

._crit_edge:                                      ; preds = %._crit_edge.loopexit, %.preheader
  %16 = phi ptr [ %.pre, %._crit_edge.loopexit ], [ %3, %.preheader ]
  tail call void @pfree(ptr noundef %16) #12
  store ptr null, ptr %2, align 8
  br label %17

17:                                               ; preds = %._crit_edge, %1
  %18 = getelementptr inbounds nuw i8, ptr %0, i64 480
  %19 = load ptr, ptr %18, align 8
  tail call void @list_free_deep(ptr noundef %19) #12
  store ptr null, ptr %18, align 8
  %20 = getelementptr inbounds nuw i8, ptr %0, i64 448
  %21 = load ptr, ptr %20, align 8
  %.not15 = icmp eq ptr %21, null
  br i1 %.not15, label %23, label %22

22:                                               ; preds = %17
  tail call void @LogicalTapeSetClose(ptr noundef nonnull %21) #12
  store ptr null, ptr %20, align 8
  br label %23

23:                                               ; preds = %22, %17
  ret void
}